target datalayout = "e-m:e-p270:32:32-p271:32:32-p272:64:64-i64:64-i128:128-f80:128-n8:16:32:64-S128"
target triple = "x86_64-pc-linux-gnu"

%struct.PROV_DH_CTX = type { ptr, ptr, ptr, i8, i32, ptr, ptr, i64, i64, ptr }

; Function Attrs: nounwind uwtable
define internal i32 @dh_init(ptr noundef %0, ptr noundef %1, ptr noundef %2) #0 {
  %4 = alloca i32, align 4
  %5 = alloca ptr, align 8
  %6 = alloca ptr, align 8
  %7 = alloca ptr, align 8
  %8 = alloca ptr, align 8
  %9 = alloca i32, align 4
  store ptr %0, ptr %5, align 8, !tbaa !3
  store ptr %1, ptr %6, align 8, !tbaa !3
  store ptr %2, ptr %7, align 8, !tbaa !16
  call void @llvm.lifetime.start.p0(i64 8, ptr %8) #7
  %10 = load ptr, ptr %5, align 8, !tbaa !3
  store ptr %10, ptr %8, align 8, !tbaa !3
  %11 = call i32 @ossl_prov_is_running()
  %12 = icmp ne i32 %11, 0
  br i1 %12, label %13, label %23

13:                                               ; preds = %3
  %14 = load ptr, ptr %8, align 8, !tbaa !3
  %15 = icmp eq ptr %14, null
  br i1 %15, label %23, label %16

16:                                               ; preds = %13
  %17 = load ptr, ptr %6, align 8, !tbaa !3
  %18 = icmp eq ptr %17, null
  br i1 %18, label %23, label %19

19:                                               ; preds = %16
  %20 = load ptr, ptr %6, align 8, !tbaa !3
  %21 = call i32 @DH_up_ref(ptr noundef %20)
  %22 = icmp ne i32 %21, 0
  br i1 %22, label %24, label %23

23:                                               ; preds = %19, %16, %13, %3
  store i32 0, ptr %4, align 4
  store i32 1, ptr %9, align 4
  br label %39

24:                                               ; preds = %19
  %25 = load ptr, ptr %8, align 8, !tbaa !3
  %26 = getelementptr inbounds nuw %struct.PROV_DH_CTX, ptr %25, i32 0, i32 1
  %27 = load ptr, ptr %26, align 8, !tbaa !18
  call void @DH_free(ptr noundef %27)
  %28 = load ptr, ptr %6, align 8, !tbaa !3
  %29 = load ptr, ptr %8, align 8, !tbaa !3
  %30 = getelementptr inbounds nuw %struct.PROV_DH_CTX, ptr %29, i32 0, i32 1
  store ptr %28, ptr %30, align 8, !tbaa !18
  %31 = load ptr, ptr %8, align 8, !tbaa !3
  %32 = getelementptr inbounds nuw %struct.PROV_DH_CTX, ptr %31, i32 0, i32 4
  store i32 0, ptr %32, align 4, !tbaa !15
  %33 = load ptr, ptr %8, align 8, !tbaa !3
  %34 = load ptr, ptr %7, align 8, !tbaa !16
  %35 = call i32 @dh_set_ctx_params(ptr noundef %33, ptr noundef %34)
  %36 = icmp ne i32 %35, 0
  br i1 %36, label %38, label %37

37:                                               ; preds = %24
  store i32 0, ptr %4, align 4
  store i32 1, ptr %9, align 4
  br label %39

38:                                               ; preds = %24
  store i32 1, ptr %4, align 4
  store i32 1, ptr %9, align 4
  br label %39

39:                                               ; preds = %38, %37, %23
  call void @llvm.lifetime.end.p0(i64 8, ptr %8) #7
  %40 = load i32, ptr %4, align 4
  ret i32 %40
}