; Function Attrs: nounwind uwtable
define internal range(i32 0, 2) i32 @dh_init(ptr noundef captures(address_is_null) %0, ptr noundef %1, ptr noundef %2) #0 {
  %4 = tail call i32 @ossl_prov_is_running() #7
  %5 = icmp eq i32 %4, 0
  %6 = icmp eq ptr %0, null
  %or.cond = or i1 %6, %5
  %7 = icmp eq ptr %1, null
  %or.cond3 = or i1 %7, %or.cond
  br i1 %or.cond3, label %15, label %8

8:                                                ; preds = %3
  %9 = tail call i32 @DH_up_ref(ptr noundef nonnull %1) #7
  %.not = icmp eq i32 %9, 0
  br i1 %.not, label %15, label %10

10:                                               ; preds = %8
  %11 = getelementptr inbounds nuw i8, ptr %0, i64 8
  %12 = load ptr, ptr %11, align 8, !tbaa !15
  tail call void @DH_free(ptr noundef %12) #7
  store ptr %1, ptr %11, align 8, !tbaa !15
  %13 = getelementptr inbounds nuw i8, ptr %0, i64 28
  store i32 0, ptr %13, align 4, !tbaa !14
  %14 = tail call i32 @dh_set_ctx_params(ptr noundef nonnull %0, ptr noundef %2)
  br label %15

15:                                               ; preds = %10, %3, %8
  %.0 = phi i32 [ 0, %8 ], [ 0, %3 ], [ %14, %10 ]
  ret i32 %.0
}